; Function Attrs: mustprogress nounwind uwtable
define internal void @_ZN5clang12ast_matchers8internal12_GLOBAL__N_112IdDynMatcherD2Ev(ptr noundef nonnull align 8 dereferenceable(56) %0) unnamed_addr #2 align 2 {
  store ptr getelementptr inbounds inrange(-16, 32) (i8, ptr @_ZTVN5clang12ast_matchers8internal12_GLOBAL__N_112IdDynMatcherE, i64 16), ptr %0, align 8
  %2 = getelementptr inbounds nuw i8, ptr %0, i64 48
  %3 = load ptr, ptr %2, align 8
  %.not.i.i = icmp eq ptr %3, null
  br i1 %.not.i.i, label %_ZN4llvm18IntrusiveRefCntPtrIN5clang12ast_matchers8internal19DynMatcherInterfaceEED2Ev.exit, label %4

4:                                                ; preds = %1
  %5 = getelementptr inbounds i8, ptr %3, i64 8
  %6 = atomicrmw sub ptr %5, i32 1 acq_rel, align 4
  %7 = icmp eq i32 %6, 1
  br i1 %7, label %8, label %_ZN4llvm18IntrusiveRefCntPtrIN5clang12ast_matchers8internal19DynMatcherInterfaceEED2Ev.exit

8:                                                ; preds = %4
  %9 = load ptr, ptr %3, align 8
  %10 = getelementptr inbounds i8, ptr %9, i64 8
  %11 = load ptr, ptr %10, align 8
  tail call void %11(ptr noundef nonnull align 8 dereferenceable(12) %3) #19
  br label %_ZN4llvm18IntrusiveRefCntPtrIN5clang12ast_matchers8internal19DynMatcherInterfaceEED2Ev.exit

_ZN4llvm18IntrusiveRefCntPtrIN5clang12ast_matchers8internal19DynMatcherInterfaceEED2Ev.exit: ; preds = %1, %4, %8
  %12 = getelementptr inbounds nuw i8, ptr %0, i64 16
  tail call void @_ZNSt7__cxx1112basic_stringIcSt11char_traitsIcESaIcEED1Ev(ptr noundef nonnull align 8 dereferenceable(32) %12) #19
  ret void
}